target datalayout = "e-m:e-p270:32:32-p271:32:32-p272:64:64-i64:64-i128:128-f80:128-n8:16:32:64-S128"
target triple = "x86_64-pc-linux-gnu"

; Function Attrs: mustprogress nounwind uwtable
define linkonce_odr hidden noundef zeroext i1 @_ZN4llvm3sys4path14is_style_posixENS1_5StyleE(i32 noundef %0) #0 comdat {
  %2 = alloca i1, align 1
  %3 = alloca i32, align 4
  store i32 %0, ptr %3, align 4
  %4 = load i32, ptr %3, align 4
  %5 = icmp eq i32 %4, 1
  br i1 %5, label %6, label %7

6:                                                ; preds = %1
  store i1 true, ptr %2, align 1
  br label %12

7:                                                ; preds = %1
  %8 = load i32, ptr %3, align 4
  %9 = icmp ne i32 %8, 0
  br i1 %9, label %10, label %11

10:                                               ; preds = %7
  store i1 false, ptr %2, align 1
  br label %12

11:                                               ; preds = %7
  store i1 true, ptr %2, align 1
  br label %12

12:                                               ; preds = %11, %10, %6
  %13 = load i1, ptr %2, align 1
  ret i1 %13
}

; Function Attrs: mustprogress nounwind uwtable
define linkonce_odr hidden noundef zeroext i1 @_ZN4llvm3sys4path16is_style_windowsENS1_5StyleE(i32 noundef %0) #0 comdat {
  %2 = alloca i32, align 4
  store i32 %0, ptr %2, align 4
  %3 = load i32, ptr %2, align 4
  %4 = call noundef zeroext i1 @_ZN4llvm3sys4path14is_style_posixENS1_5StyleE(i32 noundef %3)
  %5 = xor i1 %4, true
  ret i1 %5
}

; Function Attrs: mustprogress nounwind uwtable
define dso_local noundef zeroext i1 @_ZN4llvm3sys4path12is_separatorEcNS1_5StyleE(i8 noundef signext %0, i32 noundef %1) #0 {
  %3 = alloca i1, align 1
  %4 = alloca i8, align 1
  %5 = alloca i32, align 4
  store i8 %0, ptr %4, align 1
  store i32 %1, ptr %5, align 4
  %6 = load i8, ptr %4, align 1
  %7 = sext i8 %6 to i32
  %8 = icmp eq i32 %7, 47
  br i1 %8, label %9, label %10

9:                                                ; preds = %2
  store i1 true, ptr %3, align 1
  br label %18

10:                                               ; preds = %2
  %11 = load i32, ptr %5, align 4
  %12 = call noundef zeroext i1 @_ZN4llvm3sys4path16is_style_windowsENS1_5StyleE(i32 noundef %11)
  br i1 %12, label %13, label %17

13:                                               ; preds = %10
  %14 = load i8, ptr %4, align 1
  %15 = sext i8 %14 to i32
  %16 = icmp eq i32 %15, 92
  store i1 %16, ptr %3, align 1
  br label %18

17:                                               ; preds = %10
  store i1 false, ptr %3, align 1
  br label %18

18:                                               ; preds = %17, %13, %9
  %19 = load i1, ptr %3, align 1
  ret i1 %19
}