; Function Attrs: mustprogress nofree norecurse nosync nounwind willreturn memory(none) uwtable
define dso_local noundef zeroext i1 @_ZN4llvm3sys4path12is_separatorEcNS1_5StyleE(i8 noundef signext %0, i32 noundef %1) local_unnamed_addr #4 {
  %3 = icmp eq i8 %0, 47
  br i1 %3, label %6, label %4

4:                                                ; preds = %2
  %switch.i.i = icmp ugt i32 %1, 1
  %5 = icmp eq i8 %0, 92
  %spec.select = and i1 %5, %switch.i.i
  br label %6

6:                                                ; preds = %4, %2
  %.0 = phi i1 [ true, %2 ], [ %spec.select, %4 ]
  ret i1 %.0
}